target datalayout = "e-m:e-p270:32:32-p271:32:32-p272:64:64-i64:64-i128:128-f80:128-n8:16:32:64-S128"
target triple = "x86_64-pc-linux-gnu"

%class.RelocationHolder = type { [40 x i8] }
%class.relocInfo = type { i16 }
%class.RelocIterator = type { ptr, ptr, ptr, ptr, ptr, i16, ptr, i16, [3 x ptr], [3 x ptr], %class.RelocationHolder }

; Function Attrs: mustprogress nounwind uwtable
define linkonce_odr hidden noundef zeroext i16 @_Z12checked_castItiET_T0_(i32 noundef %0) #1 comdat {
  %2 = alloca i32, align 4
  %3 = alloca i16, align 2
  store i32 %0, ptr %2, align 4
  %4 = load i32, ptr %2, align 4
  %5 = trunc i32 %4 to i16
  store i16 %5, ptr %3, align 2
  %6 = load i16, ptr %3, align 2
  ret i16 %6
}

; Function Attrs: mustprogress nounwind uwtable
define linkonce_odr hidden void @_ZN9relocInfo23check_offset_and_formatEii(i32 noundef %0, i32 noundef %1) #1 comdat align 2 {
  %3 = alloca i32, align 4
  %4 = alloca i32, align 4
  store i32 %0, ptr %3, align 4
  store i32 %1, ptr %4, align 4
  ret void
}

; Function Attrs: mustprogress nounwind uwtable
define linkonce_odr hidden void @_ZN9relocInfoC2ENS_9relocTypeENS_12RawBitsTokenEi(ptr noundef nonnull align 2 dereferenceable(2) %0, i32 noundef %1, i32 noundef %2, i32 noundef %3) unnamed_addr #1 comdat align 2 {
  %5 = alloca ptr, align 8
  %6 = alloca i32, align 4
  %7 = alloca i32, align 4
  %8 = alloca i32, align 4
  store ptr %0, ptr %5, align 8
  store i32 %1, ptr %6, align 4
  store i32 %2, ptr %7, align 4
  store i32 %3, ptr %8, align 4
  %9 = load ptr, ptr %5, align 8
  %10 = getelementptr inbounds %class.relocInfo, ptr %9, i32 0, i32 0
  %11 = load i32, ptr %6, align 4
  %12 = shl i32 %11, 11
  %13 = load i32, ptr %8, align 4
  %14 = add nsw i32 %12, %13
  %15 = call noundef zeroext i16 @_Z12checked_castItiET_T0_(i32 noundef %14)
  store i16 %15, ptr %10, align 2
  ret void
}

; Function Attrs: mustprogress nounwind uwtable
define linkonce_odr hidden noundef i32 @_ZN9relocInfo12compute_bitsEii(i32 noundef %0, i32 noundef %1) #1 comdat align 2 {
  %3 = alloca i32, align 4
  %4 = alloca i32, align 4
  store i32 %0, ptr %3, align 4
  store i32 %1, ptr %4, align 4
  %5 = load i32, ptr %3, align 4
  %6 = load i32, ptr %4, align 4
  call void @_ZN9relocInfo23check_offset_and_formatEii(i32 noundef %5, i32 noundef %6)
  %7 = load i32, ptr %3, align 4
  %8 = sdiv i32 %7, 1
  %9 = load i32, ptr %4, align 4
  %10 = shl i32 %9, 8
  %11 = add nsw i32 %8, %10
  ret i32 %11
}

; Function Attrs: mustprogress nounwind uwtable
define linkonce_odr hidden noundef i32 @_ZN9relocInfo15check_relocTypeENS_9relocTypeE(i32 noundef %0) #1 comdat align 2 {
  %2 = alloca i32, align 4
  store i32 %0, ptr %2, align 4
  %3 = load i32, ptr %2, align 4
  ret i32 %3
}

; Function Attrs: mustprogress nounwind uwtable
define linkonce_odr hidden noundef zeroext i16 @_ZNK9relocInfo9immediateEv(ptr noundef nonnull align 2 dereferenceable(2) %0) #1 comdat align 2 {
  %2 = alloca ptr, align 8
  store ptr %0, ptr %2, align 8
  %3 = load ptr, ptr %2, align 8
  %4 = getelementptr inbounds %class.relocInfo, ptr %3, i32 0, i32 0
  %5 = load i16, ptr %4, align 2
  %6 = zext i16 %5 to i32
  %7 = and i32 %6, 1023
  %8 = trunc i32 %7 to i16
  ret i16 %8
}

; Function Attrs: mustprogress nounwind uwtable
define linkonce_odr hidden noundef zeroext i16 @_ZNK9relocInfo7datalenEv(ptr noundef nonnull align 2 dereferenceable(2) %0) #1 comdat align 2 {
  %2 = alloca ptr, align 8
  store ptr %0, ptr %2, align 8
  %3 = load ptr, ptr %2, align 8
  %4 = getelementptr inbounds %class.relocInfo, ptr %3, i32 0, i32 0
  %5 = load i16, ptr %4, align 2
  %6 = zext i16 %5 to i32
  %7 = and i32 %6, 1023
  %8 = trunc i32 %7 to i16
  ret i16 %8
}

; Function Attrs: mustprogress nounwind uwtable
define linkonce_odr hidden noundef ptr @_ZNK9relocInfo4dataEv(ptr noundef nonnull align 2 dereferenceable(2) %0) #1 comdat align 2 {
  %2 = alloca ptr, align 8
  store ptr %0, ptr %2, align 8
  %3 = load ptr, ptr %2, align 8
  %4 = getelementptr inbounds %class.relocInfo, ptr %3, i64 1
  ret ptr %4
}

; Function Attrs: mustprogress nounwind uwtable
define linkonce_odr hidden noundef zeroext i1 @_ZNK9relocInfo10is_datalenEv(ptr noundef nonnull align 2 dereferenceable(2) %0) #1 comdat align 2 {
  %2 = alloca ptr, align 8
  store ptr %0, ptr %2, align 8
  %3 = load ptr, ptr %2, align 8
  %4 = getelementptr inbounds %class.relocInfo, ptr %3, i32 0, i32 0
  %5 = load i16, ptr %4, align 2
  %6 = zext i16 %5 to i32
  %7 = and i32 %6, 1024
  %8 = icmp ne i32 %7, 0
  ret i1 %8
}

; Function Attrs: mustprogress nounwind uwtable
define linkonce_odr hidden noundef i32 @_ZNK9relocInfo4typeEv(ptr noundef nonnull align 2 dereferenceable(2) %0) #1 comdat align 2 {
  %2 = alloca ptr, align 8
  store ptr %0, ptr %2, align 8
  %3 = load ptr, ptr %2, align 8
  %4 = getelementptr inbounds %class.relocInfo, ptr %3, i32 0, i32 0
  %5 = load i16, ptr %4, align 2
  %6 = zext i16 %5 to i32
  %7 = lshr i32 %6, 11
  ret i32 %7
}

; Function Attrs: mustprogress nounwind uwtable
define linkonce_odr hidden void @_ZN9relocInfoC2ENS_9relocTypeEii(ptr noundef nonnull align 2 dereferenceable(2) %0, i32 noundef %1, i32 noundef %2, i32 noundef %3) unnamed_addr #1 comdat align 2 {
  %5 = alloca ptr, align 8
  %6 = alloca i32, align 4
  %7 = alloca i32, align 4
  %8 = alloca i32, align 4
  store ptr %0, ptr %5, align 8
  store i32 %1, ptr %6, align 4
  store i32 %2, ptr %7, align 4
  store i32 %3, ptr %8, align 4
  %9 = load ptr, ptr %5, align 8
  %10 = load i32, ptr %6, align 4
  %11 = call noundef i32 @_ZN9relocInfo15check_relocTypeENS_9relocTypeE(i32 noundef %10)
  %12 = load i32, ptr %7, align 4
  %13 = load i32, ptr %8, align 4
  %14 = call noundef i32 @_ZN9relocInfo12compute_bitsEii(i32 noundef %12, i32 noundef %13)
  call void @_ZN9relocInfoC2ENS_9relocTypeENS_12RawBitsTokenEi(ptr noundef nonnull align 2 dereferenceable(2) %9, i32 noundef %11, i32 noundef 0, i32 noundef %14)
  ret void
}

; Function Attrs: mustprogress nounwind uwtable
define linkonce_odr hidden noundef i32 @_ZNK9relocInfo6formatEv(ptr noundef nonnull align 2 dereferenceable(2) %0) #1 comdat align 2 {
  %2 = alloca ptr, align 8
  store ptr %0, ptr %2, align 8
  %3 = load ptr, ptr %2, align 8
  %4 = getelementptr inbounds %class.relocInfo, ptr %3, i32 0, i32 0
  %5 = load i16, ptr %4, align 2
  %6 = zext i16 %5 to i32
  %7 = lshr i32 %6, 8
  %8 = and i32 7, %7
  ret i32 %8
}

; Function Attrs: mustprogress nounwind uwtable
define linkonce_odr hidden noundef i32 @_ZNK9relocInfo11addr_offsetEv(ptr noundef nonnull align 2 dereferenceable(2) %0) #1 comdat align 2 {
  %2 = alloca ptr, align 8
  store ptr %0, ptr %2, align 8
  %3 = load ptr, ptr %2, align 8
  %4 = getelementptr inbounds %class.relocInfo, ptr %3, i32 0, i32 0
  %5 = load i16, ptr %4, align 2
  %6 = zext i16 %5 to i32
  %7 = and i32 %6, 255
  %8 = mul nsw i32 %7, 1
  ret i32 %8
}

; Function Attrs: mustprogress nounwind uwtable
define hidden void @_ZN13RelocIterator19advance_over_prefixEv(ptr noundef nonnull align 8 dereferenceable(152) %0) #1 align 2 {
  %2 = alloca ptr, align 8
  store ptr %0, ptr %2, align 8
  %3 = load ptr, ptr %2, align 8
  %4 = getelementptr inbounds %class.RelocIterator, ptr %3, i32 0, i32 1
  %5 = load ptr, ptr %4, align 8
  %6 = call noundef zeroext i1 @_ZNK9relocInfo10is_datalenEv(ptr noundef nonnull align 2 dereferenceable(2) %5)
  br i1 %6, label %7, label %24

7:                                                ; preds = %1
  %8 = getelementptr inbounds %class.RelocIterator, ptr %3, i32 0, i32 1
  %9 = load ptr, ptr %8, align 8
  %10 = call noundef ptr @_ZNK9relocInfo4dataEv(ptr noundef nonnull align 2 dereferenceable(2) %9)
  %11 = getelementptr inbounds %class.RelocIterator, ptr %3, i32 0, i32 6
  store ptr %10, ptr %11, align 8
  %12 = getelementptr inbounds %class.RelocIterator, ptr %3, i32 0, i32 1
  %13 = load ptr, ptr %12, align 8
  %14 = call noundef zeroext i16 @_ZNK9relocInfo7datalenEv(ptr noundef nonnull align 2 dereferenceable(2) %13)
  %15 = getelementptr inbounds %class.RelocIterator, ptr %3, i32 0, i32 7
  store i16 %14, ptr %15, align 8
  %16 = getelementptr inbounds %class.RelocIterator, ptr %3, i32 0, i32 7
  %17 = load i16, ptr %16, align 8
  %18 = sext i16 %17 to i32
  %19 = add nsw i32 %18, 1
  %20 = getelementptr inbounds %class.RelocIterator, ptr %3, i32 0, i32 1
  %21 = load ptr, ptr %20, align 8
  %22 = sext i32 %19 to i64
  %23 = getelementptr inbounds %class.relocInfo, ptr %21, i64 %22
  store ptr %23, ptr %20, align 8
  br label %35

24:                                               ; preds = %1
  %25 = getelementptr inbounds %class.RelocIterator, ptr %3, i32 0, i32 1
  %26 = load ptr, ptr %25, align 8
  %27 = call noundef zeroext i16 @_ZNK9relocInfo9immediateEv(ptr noundef nonnull align 2 dereferenceable(2) %26)
  %28 = getelementptr inbounds %class.RelocIterator, ptr %3, i32 0, i32 5
  store i16 %27, ptr %28, align 8
  %29 = getelementptr inbounds %class.RelocIterator, ptr %3, i32 0, i32 5
  %30 = getelementptr inbounds %class.RelocIterator, ptr %3, i32 0, i32 6
  store ptr %29, ptr %30, align 8
  %31 = getelementptr inbounds %class.RelocIterator, ptr %3, i32 0, i32 7
  store i16 1, ptr %31, align 8
  %32 = getelementptr inbounds %class.RelocIterator, ptr %3, i32 0, i32 1
  %33 = load ptr, ptr %32, align 8
  %34 = getelementptr inbounds %class.relocInfo, ptr %33, i32 1
  store ptr %34, ptr %32, align 8
  br label %35

35:                                               ; preds = %24, %7
  ret void
}

; Function Attrs: mustprogress nounwind uwtable
define linkonce_odr hidden noundef zeroext i1 @_ZNK9relocInfo9is_prefixEv(ptr noundef nonnull align 2 dereferenceable(2) %0) #1 comdat align 2 {
  %2 = alloca ptr, align 8
  store ptr %0, ptr %2, align 8
  %3 = load ptr, ptr %2, align 8
  %4 = call noundef i32 @_ZNK9relocInfo4typeEv(ptr noundef nonnull align 2 dereferenceable(2) %3)
  %5 = icmp eq i32 %4, 15
  ret i1 %5
}

; Function Attrs: mustprogress nounwind uwtable
define linkonce_odr hidden void @_ZN13RelocIterator15set_has_currentEb(ptr noundef nonnull align 8 dereferenceable(152) %0, i1 noundef zeroext %1) #1 comdat align 2 {
  %3 = alloca ptr, align 8
  %4 = alloca i8, align 1
  store ptr %0, ptr %3, align 8
  %5 = zext i1 %1 to i8
  store i8 %5, ptr %4, align 1
  %6 = load ptr, ptr %3, align 8
  %7 = load i8, ptr %4, align 1
  %8 = trunc i8 %7 to i1
  %9 = xor i1 %8, true
  %10 = select i1 %9, i32 -1, i32 0
  %11 = trunc i32 %10 to i16
  %12 = getelementptr inbounds %class.RelocIterator, ptr %6, i32 0, i32 7
  store i16 %11, ptr %12, align 8
  ret void
}

; Function Attrs: mustprogress nounwind uwtable
define hidden void @_ZN9relocInfo8set_typeENS_9relocTypeE(ptr noundef nonnull align 2 dereferenceable(2) %0, i32 noundef %1) #1 align 2 {
  %3 = alloca ptr, align 8
  %4 = alloca i32, align 4
  %5 = alloca i32, align 4
  %6 = alloca i32, align 4
  %7 = alloca %class.relocInfo, align 2
  store ptr %0, ptr %3, align 8
  store i32 %1, ptr %4, align 4
  %8 = load ptr, ptr %3, align 8
  %9 = call noundef i32 @_ZNK9relocInfo11addr_offsetEv(ptr noundef nonnull align 2 dereferenceable(2) %8)
  store i32 %9, ptr %5, align 4
  %10 = call noundef i32 @_ZNK9relocInfo6formatEv(ptr noundef nonnull align 2 dereferenceable(2) %8)
  store i32 %10, ptr %6, align 4
  %11 = load i32, ptr %4, align 4
  %12 = load i32, ptr %5, align 4
  %13 = load i32, ptr %6, align 4
  call void @_ZN9relocInfoC2ENS_9relocTypeEii(ptr noundef nonnull align 2 dereferenceable(2) %7, i32 noundef %11, i32 noundef %12, i32 noundef %13)
  call void @llvm.memcpy.p0.p0.i64(ptr align 2 %8, ptr align 2 %7, i64 2, i1 false)
  ret void
}

; Function Attrs: mustprogress nounwind uwtable
define linkonce_odr hidden noundef ptr @_ZNK13RelocIterator7currentEv(ptr noundef nonnull align 8 dereferenceable(152) %0) #1 comdat align 2 {
  %2 = alloca ptr, align 8
  store ptr %0, ptr %2, align 8
  %3 = load ptr, ptr %2, align 8
  %4 = getelementptr inbounds %class.RelocIterator, ptr %3, i32 0, i32 1
  %5 = load ptr, ptr %4, align 8
  ret ptr %5
}

; Function Attrs: mustprogress nounwind uwtable
define linkonce_odr hidden noundef ptr @_ZNK13RelocIterator4addrEv(ptr noundef nonnull align 8 dereferenceable(152) %0) #1 comdat align 2 {
  %2 = alloca ptr, align 8
  store ptr %0, ptr %2, align 8
  %3 = load ptr, ptr %2, align 8
  %4 = getelementptr inbounds %class.RelocIterator, ptr %3, i32 0, i32 4
  %5 = load ptr, ptr %4, align 8
  ret ptr %5
}

; Function Attrs: mustprogress nounwind uwtable
define linkonce_odr hidden noundef zeroext i1 @_ZN13RelocIterator4nextEv(ptr noundef nonnull align 8 dereferenceable(152) %0) #1 comdat align 2 {
  %2 = alloca i1, align 1
  %3 = alloca ptr, align 8
  store ptr %0, ptr %3, align 8
  %4 = load ptr, ptr %3, align 8
  %5 = getelementptr inbounds %class.RelocIterator, ptr %4, i32 0, i32 1
  %6 = load ptr, ptr %5, align 8
  %7 = getelementptr inbounds %class.relocInfo, ptr %6, i32 1
  store ptr %7, ptr %5, align 8
  %8 = getelementptr inbounds %class.RelocIterator, ptr %4, i32 0, i32 1
  %9 = load ptr, ptr %8, align 8
  %10 = getelementptr inbounds %class.RelocIterator, ptr %4, i32 0, i32 2
  %11 = load ptr, ptr %10, align 8
  %12 = icmp eq ptr %9, %11
  br i1 %12, label %13, label %14

13:                                               ; preds = %1
  call void @_ZN13RelocIterator15set_has_currentEb(ptr noundef nonnull align 8 dereferenceable(152) %4, i1 noundef zeroext false)
  store i1 false, ptr %2, align 1
  br label %38

14:                                               ; preds = %1
  call void @_ZN13RelocIterator15set_has_currentEb(ptr noundef nonnull align 8 dereferenceable(152) %4, i1 noundef zeroext true)
  %15 = getelementptr inbounds %class.RelocIterator, ptr %4, i32 0, i32 1
  %16 = load ptr, ptr %15, align 8
  %17 = call noundef zeroext i1 @_ZNK9relocInfo9is_prefixEv(ptr noundef nonnull align 2 dereferenceable(2) %16)
  br i1 %17, label %18, label %19

18:                                               ; preds = %14
  call void @_ZN13RelocIterator19advance_over_prefixEv(ptr noundef nonnull align 8 dereferenceable(152) %4)
  br label %19

19:                                               ; preds = %18, %14
  %20 = getelementptr inbounds %class.RelocIterator, ptr %4, i32 0, i32 1
  %21 = load ptr, ptr %20, align 8
  %22 = call noundef i32 @_ZNK9relocInfo11addr_offsetEv(ptr noundef nonnull align 2 dereferenceable(2) %21)
  %23 = getelementptr inbounds %class.RelocIterator, ptr %4, i32 0, i32 4
  %24 = load ptr, ptr %23, align 8
  %25 = sext i32 %22 to i64
  %26 = getelementptr inbounds i8, ptr %24, i64 %25
  store ptr %26, ptr %23, align 8
  %27 = getelementptr inbounds %class.RelocIterator, ptr %4, i32 0, i32 0
  %28 = load ptr, ptr %27, align 8
  %29 = icmp ne ptr %28, null
  br i1 %29, label %30, label %37

30:                                               ; preds = %19
  %31 = getelementptr inbounds %class.RelocIterator, ptr %4, i32 0, i32 4
  %32 = load ptr, ptr %31, align 8
  %33 = getelementptr inbounds %class.RelocIterator, ptr %4, i32 0, i32 0
  %34 = load ptr, ptr %33, align 8
  %35 = icmp uge ptr %32, %34
  br i1 %35, label %36, label %37

36:                                               ; preds = %30
  call void @_ZN13RelocIterator15set_has_currentEb(ptr noundef nonnull align 8 dereferenceable(152) %4, i1 noundef zeroext false)
  store i1 false, ptr %2, align 1
  br label %38

37:                                               ; preds = %30, %19
  store i1 true, ptr %2, align 1
  br label %38

38:                                               ; preds = %37, %36, %13
  %39 = load i1, ptr %2, align 1
  ret i1 %39
}

; Function Attrs: mustprogress nounwind uwtable
define hidden void @_ZN9relocInfo29change_reloc_info_for_addressEP13RelocIteratorPhNS_9relocTypeES3_(ptr noundef %0, ptr noundef %1, i32 noundef %2, i32 noundef %3) #1 align 2 {
  %5 = alloca ptr, align 8
  %6 = alloca ptr, align 8
  %7 = alloca i32, align 4
  %8 = alloca i32, align 4
  %9 = alloca i8, align 1
  store ptr %0, ptr %5, align 8
  store ptr %1, ptr %6, align 8
  store i32 %2, ptr %7, align 4
  store i32 %3, ptr %8, align 4
  store i8 0, ptr %9, align 1
  br label %10

10:                                               ; preds = %28, %4
  %11 = load ptr, ptr %5, align 8
  %12 = call noundef zeroext i1 @_ZN13RelocIterator4nextEv(ptr noundef nonnull align 8 dereferenceable(152) %11)
  br i1 %12, label %13, label %17

13:                                               ; preds = %10
  %14 = load i8, ptr %9, align 1
  %15 = trunc i8 %14 to i1
  %16 = xor i1 %15, true
  br label %17

17:                                               ; preds = %13, %10
  %18 = phi i1 [ false, %10 ], [ %16, %13 ]
  br i1 %18, label %19, label %29

19:                                               ; preds = %17
  %20 = load ptr, ptr %5, align 8
  %21 = call noundef ptr @_ZNK13RelocIterator4addrEv(ptr noundef nonnull align 8 dereferenceable(152) %20)
  %22 = load ptr, ptr %6, align 8
  %23 = icmp eq ptr %21, %22
  br i1 %23, label %24, label %28

24:                                               ; preds = %19
  %25 = load ptr, ptr %5, align 8
  %26 = call noundef ptr @_ZNK13RelocIterator7currentEv(ptr noundef nonnull align 8 dereferenceable(152) %25)
  %27 = load i32, ptr %8, align 4
  call void @_ZN9relocInfo8set_typeENS_9relocTypeE(ptr noundef nonnull align 2 dereferenceable(2) %26, i32 noundef %27)
  store i8 1, ptr %9, align 1
  br label %28

28:                                               ; preds = %24, %19
  br label %10, !llvm.loop !6

29:                                               ; preds = %17
  ret void
}