; Function Attrs: mustprogress nofree norecurse nosync nounwind memory(readwrite, inaccessiblemem: none) uwtable
define hidden void @_ZN9relocInfo29change_reloc_info_for_addressEP13RelocIteratorPhNS_9relocTypeES3_(ptr noundef %0, ptr noundef readnone %1, i32 noundef %2, i32 noundef %3) local_unnamed_addr #3 align 2 {
  %5 = getelementptr inbounds i8, ptr %0, i64 8
  %6 = getelementptr inbounds i8, ptr %0, i64 16
  %7 = getelementptr inbounds i8, ptr %0, i64 56
  %8 = load ptr, ptr %5, align 8
  %9 = getelementptr inbounds i8, ptr %8, i64 2
  store ptr %9, ptr %5, align 8
  %10 = load ptr, ptr %6, align 8
  %11 = icmp eq ptr %9, %10
  br i1 %11, label %_ZN13RelocIterator4nextEv.exit.thread, label %.lr.ph

.lr.ph:                                           ; preds = %4
  %12 = getelementptr inbounds i8, ptr %0, i64 48
  %13 = getelementptr inbounds i8, ptr %0, i64 40
  %14 = getelementptr inbounds i8, ptr %0, i64 32
  %.tr.i = trunc i32 %3 to i16
  %15 = shl i16 %.tr.i, 11
  br label %16

16:                                               ; preds = %.lr.ph, %46
  %17 = phi ptr [ %10, %.lr.ph ], [ %47, %46 ]
  %18 = phi ptr [ %9, %.lr.ph ], [ %49, %46 ]
  %19 = phi ptr [ %8, %.lr.ph ], [ %48, %46 ]
  %.08 = phi i1 [ false, %.lr.ph ], [ %41, %46 ]
  store i16 0, ptr %7, align 8
  %20 = load i16, ptr %18, align 2
  %.mask.i.i = and i16 %20, -2048
  %21 = icmp eq i16 %.mask.i.i, 30720
  br i1 %21, label %22, label %32

22:                                               ; preds = %16
  %23 = and i16 %20, 1024
  %.not.i.i = icmp eq i16 %23, 0
  br i1 %.not.i.i, label %30, label %24

24:                                               ; preds = %22
  %25 = getelementptr inbounds i8, ptr %19, i64 4
  store ptr %25, ptr %12, align 8
  %26 = load i16, ptr %18, align 2
  %27 = and i16 %26, 1023
  %28 = zext nneg i16 %27 to i64
  %29 = getelementptr %class.relocInfo, ptr %18, i64 %28
  br label %_ZN13RelocIterator19advance_over_prefixEv.exit.i

30:                                               ; preds = %22
  %31 = and i16 %20, 1023
  store i16 %31, ptr %13, align 8
  store ptr %13, ptr %12, align 8
  br label %_ZN13RelocIterator19advance_over_prefixEv.exit.i

_ZN13RelocIterator19advance_over_prefixEv.exit.i: ; preds = %30, %24
  %.sink.i.i = phi i16 [ 1, %30 ], [ %27, %24 ]
  %.pn.i.i = phi ptr [ %18, %30 ], [ %29, %24 ]
  store i16 %.sink.i.i, ptr %7, align 8
  %storemerge.i.i = getelementptr i8, ptr %.pn.i.i, i64 2
  store ptr %storemerge.i.i, ptr %5, align 8
  %.pre.i = load i16, ptr %storemerge.i.i, align 2
  br label %32

32:                                               ; preds = %_ZN13RelocIterator19advance_over_prefixEv.exit.i, %16
  %33 = phi ptr [ %storemerge.i.i, %_ZN13RelocIterator19advance_over_prefixEv.exit.i ], [ %18, %16 ]
  %34 = phi i16 [ %.pre.i, %_ZN13RelocIterator19advance_over_prefixEv.exit.i ], [ %20, %16 ]
  %35 = and i16 %34, 255
  %36 = load ptr, ptr %14, align 8
  %37 = zext nneg i16 %35 to i64
  %38 = getelementptr inbounds i8, ptr %36, i64 %37
  store ptr %38, ptr %14, align 8
  %39 = load ptr, ptr %0, align 8
  %.not.i = icmp eq ptr %39, null
  %.not3.i = icmp ult ptr %38, %39
  %or.cond.i = select i1 %.not.i, i1 true, i1 %.not3.i
  br i1 %or.cond.i, label %_ZN13RelocIterator4nextEv.exit, label %_ZN13RelocIterator4nextEv.exit.thread

_ZN13RelocIterator4nextEv.exit.thread:            ; preds = %32, %46, %4
  store i16 -1, ptr %7, align 8
  br label %.loopexit

_ZN13RelocIterator4nextEv.exit:                   ; preds = %32
  br i1 %.08, label %.loopexit, label %40

40:                                               ; preds = %_ZN13RelocIterator4nextEv.exit
  %41 = icmp eq ptr %38, %1
  br i1 %41, label %42, label %46

42:                                               ; preds = %40
  %43 = load i16, ptr %33, align 2
  %44 = and i16 %43, 2047
  %45 = or disjoint i16 %44, %15
  store i16 %45, ptr %33, align 2
  %.pre = load ptr, ptr %5, align 8
  %.pre11 = load ptr, ptr %6, align 8
  br label %46

46:                                               ; preds = %42, %40
  %47 = phi ptr [ %.pre11, %42 ], [ %17, %40 ]
  %48 = phi ptr [ %.pre, %42 ], [ %33, %40 ]
  %49 = getelementptr inbounds i8, ptr %48, i64 2
  store ptr %49, ptr %5, align 8
  %50 = icmp eq ptr %49, %47
  br i1 %50, label %_ZN13RelocIterator4nextEv.exit.thread, label %16, !llvm.loop !6

.loopexit:                                        ; preds = %_ZN13RelocIterator4nextEv.exit, %_ZN13RelocIterator4nextEv.exit.thread
  ret void
}